; Function Attrs: null_pointer_is_valid sspstrong uwtable
define internal fastcc noundef zeroext i1 @nstrace_read_page(ptr noundef readonly captures(none) %0, ptr noundef writeonly captures(none) %1, ptr noundef %2) unnamed_addr #0 {
  %4 = getelementptr inbounds nuw i8, ptr %0, i64 96
  %5 = load ptr, ptr %4, align 8
  %6 = load ptr, ptr %5, align 8
  %7 = getelementptr inbounds nuw i8, ptr %5, i64 8
  %8 = load i32, ptr %7, align 8
  %9 = load ptr, ptr %0, align 8
  %10 = tail call i32 @file_read(ptr noundef %6, i32 noundef %8, ptr noundef %9)
  %11 = icmp slt i32 %10, 0
  br i1 %11, label %12, label %15

12:                                               ; preds = %3
  %13 = load ptr, ptr %0, align 8
  %14 = tail call i32 @file_error(ptr noundef %13, ptr noundef %2)
  store i32 %14, ptr %1, align 4
  br label %20

15:                                               ; preds = %3
  %16 = icmp eq i32 %10, 0
  br i1 %16, label %17, label %18

17:                                               ; preds = %15
  store i32 0, ptr %1, align 4
  br label %20

18:                                               ; preds = %15
  %19 = getelementptr inbounds nuw i8, ptr %5, i64 28
  store i32 %10, ptr %19, align 4
  br label %20

20:                                               ; preds = %18, %17, %12
  %.0 = phi i1 [ false, %12 ], [ false, %17 ], [ true, %18 ]
  ret i1 %.0
}